; Function Attrs: nounwind uwtable
define internal fastcc ptr @str_mod(ptr noundef readonly captures(none) %0, ptr noundef readonly %1, ptr noundef readonly %2) unnamed_addr #0 {
  %4 = load i8, ptr %1, align 1, !tbaa !3
  %.not34 = icmp eq i8 %4, 0
  br i1 %.not34, label %._crit_edge, label %.lr.ph

._crit_edge:                                      ; preds = %18, %3
  %.028.lcssa = phi i64 [ 1, %3 ], [ %.129, %18 ]
  %5 = getelementptr inbounds nuw i8, ptr %0, i64 104
  %6 = load ptr, ptr %5, align 8, !tbaa !67
  %7 = tail call ptr @vmalloc(ptr noundef %6, i64 noundef %.028.lcssa) #25
  %8 = icmp eq ptr %7, null
  br i1 %8, label %21, label %.preheader

.preheader:                                       ; preds = %._crit_edge
  %9 = load i8, ptr %1, align 1, !tbaa !3
  %.not3337 = icmp eq i8 %9, 0
  br i1 %.not3337, label %._crit_edge41, label %.lr.ph40

.lr.ph:                                           ; preds = %3, %18
  %.in = phi i8 [ %20, %18 ], [ %4, %3 ]
  %.02736 = phi ptr [ %19, %18 ], [ %1, %3 ]
  %.02835 = phi i64 [ %.129, %18 ], [ 1, %3 ]
  %10 = sext i8 %.in to i32
  %11 = tail call ptr @strchr(ptr noundef nonnull dereferenceable(1) %2, i32 noundef %10) #30
  %12 = icmp eq ptr %11, null
  br i1 %12, label %13, label %18

13:                                               ; preds = %.lr.ph
  %14 = getelementptr inbounds nuw i8, ptr %.02736, i64 1
  %15 = tail call ptr @strchr(ptr noundef nonnull dereferenceable(1) %14, i32 noundef %10) #30
  %16 = icmp eq ptr %15, null
  %17 = zext i1 %16 to i64
  %spec.select = add i64 %.02835, %17
  br label %18

18:                                               ; preds = %13, %.lr.ph
  %.129 = phi i64 [ %.02835, %.lr.ph ], [ %spec.select, %13 ]
  %19 = getelementptr inbounds nuw i8, ptr %.02736, i64 1
  %20 = load i8, ptr %19, align 1, !tbaa !3
  %.not = icmp eq i8 %20, 0
  br i1 %.not, label %._crit_edge, label %.lr.ph, !llvm.loop !107

21:                                               ; preds = %._crit_edge
  %22 = tail call ptr @exnospace() #25
  br label %38

._crit_edge41:                                    ; preds = %35, %.preheader
  %.025.lcssa = phi i64 [ 0, %.preheader ], [ %.1, %35 ]
  %23 = getelementptr inbounds nuw i8, ptr %7, i64 %.025.lcssa
  store i8 0, ptr %23, align 1, !tbaa !3
  br label %38

.lr.ph40:                                         ; preds = %.preheader, %35
  %24 = phi i8 [ %37, %35 ], [ %9, %.preheader ]
  %.039 = phi ptr [ %36, %35 ], [ %1, %.preheader ]
  %.02538 = phi i64 [ %.1, %35 ], [ 0, %.preheader ]
  %25 = sext i8 %24 to i32
  %26 = tail call ptr @strchr(ptr noundef nonnull dereferenceable(1) %2, i32 noundef %25) #30
  %27 = icmp eq ptr %26, null
  br i1 %27, label %28, label %35

28:                                               ; preds = %.lr.ph40
  %29 = getelementptr inbounds nuw i8, ptr %.039, i64 1
  %30 = tail call ptr @strchr(ptr noundef nonnull dereferenceable(1) %29, i32 noundef %25) #30
  %31 = icmp eq ptr %30, null
  br i1 %31, label %32, label %35

32:                                               ; preds = %28
  %33 = getelementptr inbounds nuw i8, ptr %7, i64 %.02538
  store i8 %24, ptr %33, align 1, !tbaa !3
  %34 = add i64 %.02538, 1
  br label %35

35:                                               ; preds = %.lr.ph40, %28, %32
  %.1 = phi i64 [ %34, %32 ], [ %.02538, %28 ], [ %.02538, %.lr.ph40 ]
  %36 = getelementptr inbounds nuw i8, ptr %.039, i64 1
  %37 = load i8, ptr %36, align 1, !tbaa !3
  %.not33 = icmp eq i8 %37, 0
  br i1 %.not33, label %._crit_edge41, label %.lr.ph40, !llvm.loop !108

38:                                               ; preds = %._crit_edge41, %21
  %.026 = phi ptr [ %22, %21 ], [ %7, %._crit_edge41 ]
  ret ptr %.026
}